; Function Attrs: mustprogress nounwind uwtable
define internal fastcc void @_ZN12_GLOBAL__N_112StmtProfiler31VisitCXXUnresolvedConstructExprEPKN5clang26CXXUnresolvedConstructExprE(ptr noundef nonnull align 8 dereferenceable(18) %0, ptr noundef %1) unnamed_addr #0 align 2 {
  tail call fastcc void @_ZN12_GLOBAL__N_112StmtProfiler9VisitStmtEPKN5clang4StmtE(ptr noundef nonnull align 8 dereferenceable(18) %0, ptr noundef %1)
  %3 = getelementptr inbounds nuw i8, ptr %1, i64 16
  %.0.copyload.i.i.i.i.i = load i64, ptr %3, align 8
  %4 = and i64 %.0.copyload.i.i.i.i.i, -8
  %5 = inttoptr i64 %4 to ptr
  %.sroa.0.0.copyload.i.i = load i64, ptr %5, align 8
  %6 = load ptr, ptr %0, align 8
  %7 = getelementptr inbounds nuw i8, ptr %6, i64 32
  %8 = load ptr, ptr %7, align 8
  tail call void %8(ptr noundef nonnull align 8 dereferenceable(18) %0, i64 %.sroa.0.0.copyload.i.i) #11
  %9 = getelementptr inbounds nuw i8, ptr %0, i64 8
  %10 = load ptr, ptr %9, align 8
  %.0.copyload.i.i.i.i = load i64, ptr %3, align 8
  %11 = tail call noundef i64 @_ZNK4llvm15SmallVectorBaseIjE4sizeEv(ptr noundef nonnull align 8 dereferenceable(144) %10) #11
  %12 = add i64 %11, 1
  %13 = tail call noundef i64 @_ZNK4llvm15SmallVectorBaseIjE8capacityEv(ptr noundef nonnull align 8 dereferenceable(144) %10) #11
  %.not.i.i.i.i = icmp ugt i64 %12, %13
  br i1 %.not.i.i.i.i, label %14, label %_ZN4llvm16FoldingSetNodeID10AddIntegerEi.exit

14:                                               ; preds = %2
  %15 = getelementptr inbounds nuw i8, ptr %10, i64 16
  tail call void @_ZN4llvm15SmallVectorBaseIjE8grow_podEPvmm(ptr noundef nonnull align 8 dereferenceable(144) %10, ptr noundef nonnull %15, i64 noundef %12, i64 noundef 4) #11
  br label %_ZN4llvm16FoldingSetNodeID10AddIntegerEi.exit

_ZN4llvm16FoldingSetNodeID10AddIntegerEi.exit:    ; preds = %2, %14
  %16 = trunc i64 %.0.copyload.i.i.i.i to i32
  %17 = lshr i32 %16, 2
  %18 = and i32 %17, 1
  %19 = load ptr, ptr %10, align 8
  %20 = tail call noundef i64 @_ZNK4llvm15SmallVectorBaseIjE4sizeEv(ptr noundef nonnull align 8 dereferenceable(144) %10) #11
  %21 = getelementptr inbounds i32, ptr %19, i64 %20
  store i32 %18, ptr %21, align 1
  %22 = tail call noundef i64 @_ZNK4llvm15SmallVectorBaseIjE4sizeEv(ptr noundef nonnull align 8 dereferenceable(144) %10) #11
  %23 = add i64 %22, 1
  tail call void @_ZN4llvm15SmallVectorBaseIjE8set_sizeEm(ptr noundef nonnull align 8 dereferenceable(144) %10, i64 noundef %23) #11
  ret void
}